target datalayout = "e-m:e-p270:32:32-p271:32:32-p272:64:64-i64:64-i128:128-f80:128-n8:16:32:64-S128"
target triple = "x86_64-unknown-linux-gnu"

%struct.ecc_set_type = type { i32, i32, ptr, ptr, ptr, ptr, ptr, ptr, ptr, ptr, i32, i32, i32 }

; Function Attrs: nounwind uwtable
define i32 @wc_ecc_get_oid(i32 noundef %oidSum, ptr noundef %oid, ptr noundef %oidSz) #0 {
entry:
  %retval = alloca i32, align 4
  %oidSum.addr = alloca i32, align 4
  %oid.addr = alloca ptr, align 8
  %oidSz.addr = alloca ptr, align 8
  %x = alloca i32, align 4
  %ret = alloca i32, align 4
  store i32 %oidSum, ptr %oidSum.addr, align 4
  store ptr %oid, ptr %oid.addr, align 8
  store ptr %oidSz, ptr %oidSz.addr, align 8
  %0 = load i32, ptr %oidSum.addr, align 4
  %cmp = icmp eq i32 %0, 0
  br i1 %cmp, label %if.then, label %if.end

if.then:                                          ; preds = %entry
  store i32 -173, ptr %retval, align 4
  br label %return

if.end:                                           ; preds = %entry
  store i32 0, ptr %x, align 4
  br label %for.cond

for.cond:                                         ; preds = %for.inc, %if.end
  %1 = load i32, ptr %x, align 4
  %idxprom = sext i32 %1 to i64
  %arrayidx = getelementptr inbounds [6 x %struct.ecc_set_type], ptr @ecc_sets, i64 0, i64 %idxprom
  %size = getelementptr inbounds %struct.ecc_set_type, ptr %arrayidx, i32 0, i32 0
  %2 = load i32, ptr %size, align 8
  %cmp1 = icmp ne i32 %2, 0
  br i1 %cmp1, label %for.body, label %for.end

for.body:                                         ; preds = %for.cond
  %3 = load i32, ptr %x, align 4
  %idxprom2 = sext i32 %3 to i64
  %arrayidx3 = getelementptr inbounds [6 x %struct.ecc_set_type], ptr @ecc_sets, i64 0, i64 %idxprom2
  %oidSum4 = getelementptr inbounds %struct.ecc_set_type, ptr %arrayidx3, i32 0, i32 11
  %4 = load i32, ptr %oidSum4, align 4
  %5 = load i32, ptr %oidSum.addr, align 4
  %cmp5 = icmp eq i32 %4, %5
  br i1 %cmp5, label %if.then6, label %if.end20

if.then6:                                         ; preds = %for.body
  %6 = load ptr, ptr %oidSz.addr, align 8
  %tobool = icmp ne ptr %6, null
  br i1 %tobool, label %if.then7, label %if.end11

if.then7:                                         ; preds = %if.then6
  %7 = load i32, ptr %x, align 4
  %idxprom8 = sext i32 %7 to i64
  %arrayidx9 = getelementptr inbounds [6 x %struct.ecc_set_type], ptr @ecc_sets, i64 0, i64 %idxprom8
  %oidSz10 = getelementptr inbounds %struct.ecc_set_type, ptr %arrayidx9, i32 0, i32 10
  %8 = load i32, ptr %oidSz10, align 8
  %9 = load ptr, ptr %oidSz.addr, align 8
  store i32 %8, ptr %9, align 4
  br label %if.end11

if.end11:                                         ; preds = %if.then7, %if.then6
  %10 = load ptr, ptr %oid.addr, align 8
  %tobool12 = icmp ne ptr %10, null
  br i1 %tobool12, label %if.then13, label %if.end17

if.then13:                                        ; preds = %if.end11
  %11 = load i32, ptr %x, align 4
  %idxprom14 = sext i32 %11 to i64
  %arrayidx15 = getelementptr inbounds [6 x %struct.ecc_set_type], ptr @ecc_sets, i64 0, i64 %idxprom14
  %oid16 = getelementptr inbounds %struct.ecc_set_type, ptr %arrayidx15, i32 0, i32 9
  %12 = load ptr, ptr %oid16, align 8
  %13 = load ptr, ptr %oid.addr, align 8
  store ptr %12, ptr %13, align 8
  br label %if.end17

if.end17:                                         ; preds = %if.then13, %if.end11
  %14 = load i32, ptr %x, align 4
  %idxprom18 = sext i32 %14 to i64
  %arrayidx19 = getelementptr inbounds [6 x %struct.ecc_set_type], ptr @ecc_sets, i64 0, i64 %idxprom18
  %id = getelementptr inbounds %struct.ecc_set_type, ptr %arrayidx19, i32 0, i32 1
  %15 = load i32, ptr %id, align 4
  store i32 %15, ptr %ret, align 4
  %16 = load i32, ptr %ret, align 4
  store i32 %16, ptr %retval, align 4
  br label %return

if.end20:                                         ; preds = %for.body
  br label %for.inc

for.inc:                                          ; preds = %if.end20
  %17 = load i32, ptr %x, align 4
  %inc = add nsw i32 %17, 1
  store i32 %inc, ptr %x, align 4
  br label %for.cond, !llvm.loop !30

for.end:                                          ; preds = %for.cond
  store i32 -174, ptr %retval, align 4
  br label %return

return:                                           ; preds = %for.end, %if.end17, %if.then
  %18 = load i32, ptr %retval, align 4
  ret i32 %18
}