; Function Attrs: nofree norecurse nosync nounwind memory(argmem: write) uwtable
define i32 @wc_ecc_get_oid(i32 noundef %oidSum, ptr noundef writeonly %oid, ptr noundef writeonly %oidSz) local_unnamed_addr #15 {
entry:
  %cmp = icmp eq i32 %oidSum, 0
  br i1 %cmp, label %return, label %for.body

for.cond:                                         ; preds = %for.body
  %indvars.iv.next = add nuw nsw i64 %indvars.iv, 1
  %arrayidx = getelementptr inbounds nuw [6 x %struct.ecc_set_type], ptr @ecc_sets, i64 0, i64 %indvars.iv.next
  %exitcond = icmp eq i64 %indvars.iv.next, 5
  br i1 %exitcond, label %return, label %for.body, !llvm.loop !27

for.body:                                         ; preds = %entry, %for.cond
  %indvars.iv = phi i64 [ %indvars.iv.next, %for.cond ], [ 0, %entry ]
  %arrayidx11 = phi ptr [ %arrayidx, %for.cond ], [ @ecc_sets, %entry ]
  %oidSum4 = getelementptr inbounds nuw i8, ptr %arrayidx11, i64 76
  %0 = load i32, ptr %oidSum4, align 4
  %cmp5 = icmp eq i32 %0, %oidSum
  br i1 %cmp5, label %if.then6, label %for.cond

if.then6:                                         ; preds = %for.body
  %tobool.not = icmp eq ptr %oidSz, null
  br i1 %tobool.not, label %if.end11, label %if.then7

if.then7:                                         ; preds = %if.then6
  %oidSz10 = getelementptr inbounds nuw i8, ptr %arrayidx11, i64 72
  %1 = load i32, ptr %oidSz10, align 8
  store i32 %1, ptr %oidSz, align 4
  br label %if.end11

if.end11:                                         ; preds = %if.then7, %if.then6
  %tobool12.not = icmp eq ptr %oid, null
  br i1 %tobool12.not, label %if.end17, label %if.then13

if.then13:                                        ; preds = %if.end11
  %oid16 = getelementptr inbounds nuw i8, ptr %arrayidx11, i64 64
  %2 = load ptr, ptr %oid16, align 8
  store ptr %2, ptr %oid, align 8
  br label %if.end17

if.end17:                                         ; preds = %if.then13, %if.end11
  %id = getelementptr inbounds nuw i8, ptr %arrayidx11, i64 4
  %3 = load i32, ptr %id, align 4
  br label %return

return:                                           ; preds = %for.cond, %entry, %if.end17
  %retval.0 = phi i32 [ %3, %if.end17 ], [ -173, %entry ], [ -174, %for.cond ]
  ret i32 %retval.0
}